; ModuleID = '34/183.c'
source_filename = "34/183.c"
target datalayout = "e-m:e-p270:32:32-p271:32:32-p272:64:64-i64:64-f80:128-n8:16:32:64-S128"
target triple = "x86_64-pc-linux-gnu"

@.str = private unnamed_addr constant [3 x i8] c"%d\00", align 1
@.str.1 = private unnamed_addr constant [9 x i8] c"%d/2=%d\0A\00", align 1
@.str.2 = private unnamed_addr constant [4 x i8] c"End\00", align 1
@.str.3 = private unnamed_addr constant [11 x i8] c"%d*3+1=%d\0A\00", align 1

; Function Attrs: noinline nounwind uwtable
define dso_local void @main() #0 {
  %1 = alloca i32, align 4
  %2 = alloca i32, align 4
  %3 = call i32 (i8*, ...) @__isoc99_scanf(i8* getelementptr inbounds ([3 x i8], [3 x i8]* @.str, i64 0, i64 0), i32* %1)
  br label %4

4:                                                ; preds = %0, %38
  %5 = load i32, i32* %1, align 4
  %6 = srem i32 %5, 2
  %7 = icmp eq i32 %6, 0
  br i1 %7, label %8, label %20

8:                                                ; preds = %4
  %9 = load i32, i32* %1, align 4
  %10 = load i32, i32* %1, align 4
  %11 = sdiv i32 %10, 2
  %12 = call i32 (i8*, ...) @printf(i8* getelementptr inbounds ([9 x i8], [9 x i8]* @.str.1, i64 0, i64 0), i32 %9, i32 %11)
  %13 = load i32, i32* %1, align 4
  %14 = sdiv i32 %13, 2
  store i32 %14, i32* %1, align 4
  %15 = load i32, i32* %1, align 4
  %16 = icmp eq i32 %15, 1
  br i1 %16, label %17, label %19

17:                                               ; preds = %8
  %18 = call i32 (i8*, ...) @printf(i8* getelementptr inbounds ([4 x i8], [4 x i8]* @.str.2, i64 0, i64 0))
  br label %39

19:                                               ; preds = %8
  br label %20

20:                                               ; preds = %19, %4
  %21 = load i32, i32* %1, align 4
  %22 = srem i32 %21, 2
  %23 = icmp ne i32 %22, 0
  br i1 %23, label %24, label %38

24:                                               ; preds = %20
  %25 = load i32, i32* %1, align 4
  %26 = icmp eq i32 %25, 1
  br i1 %26, label %27, label %29

27:                                               ; preds = %24
  %28 = call i32 (i8*, ...) @printf(i8* getelementptr inbounds ([4 x i8], [4 x i8]* @.str.2, i64 0, i64 0))
  br label %39

29:                                               ; preds = %24
  %30 = load i32, i32* %1, align 4
  %31 = load i32, i32* %1, align 4
  %32 = mul nsw i32 %31, 3
  %33 = add nsw i32 %32, 1
  %34 = call i32 (i8*, ...) @printf(i8* getelementptr inbounds ([11 x i8], [11 x i8]* @.str.3, i64 0, i64 0), i32 %30, i32 %33)
  %35 = load i32, i32* %1, align 4
  %36 = mul nsw i32 %35, 3
  %37 = add nsw i32 %36, 1
  store i32 %37, i32* %1, align 4
  br label %38

38:                                               ; preds = %29, %20
  br label %4

39:                                               ; preds = %27, %17
  ret void
}

declare dso_local i32 @__isoc99_scanf(i8*, ...) #1

declare dso_local i32 @printf(i8*, ...) #1


!llvm.module.flags = !{!0}
!llvm.ident = !{!1}

!0 = !{i32 1, !"wchar_size", i32 4}
!1 = !{!"clang version 10.0.0-4ubuntu1 "}
